target datalayout = "e-m:e-p270:32:32-p271:32:32-p272:64:64-i64:64-i128:128-f80:128-n8:16:32:64-S128"
target triple = "x86_64-unknown-linux-gnu"

%"class.node::MutexBase" = type { %union.pthread_mutex_t }
%union.pthread_mutex_t = type { %struct.__pthread_mutex_s }
%struct.__pthread_mutex_s = type { i32, i32, i32, i32, i32, i16, i16, %struct.__pthread_internal_list }
%struct.__pthread_internal_list = type { ptr, ptr }
%"class.node::MemoryRetainer" = type { ptr }
%"class.std::__shared_count" = type { ptr }
%"class.node::worker::MessagePortData" = type { %"class.node::worker::TransferData", %"class.node::MutexBase", %"class.std::deque.363", ptr, %"class.std::shared_ptr.369" }
%"class.node::worker::TransferData" = type { %"class.node::MemoryRetainer" }
%"class.std::deque.363" = type { %"class.std::_Deque_base.364" }
%"class.std::_Deque_base.364" = type { %"struct.std::_Deque_base<std::shared_ptr<node::worker::Message>, std::allocator<std::shared_ptr<node::worker::Message>>>::_Deque_impl" }
%"struct.std::_Deque_base<std::shared_ptr<node::worker::Message>, std::allocator<std::shared_ptr<node::worker::Message>>>::_Deque_impl" = type { %"struct.std::_Deque_base<std::shared_ptr<node::worker::Message>, std::allocator<std::shared_ptr<node::worker::Message>>>::_Deque_impl_data" }
%"struct.std::_Deque_base<std::shared_ptr<node::worker::Message>, std::allocator<std::shared_ptr<node::worker::Message>>>::_Deque_impl_data" = type { ptr, i64, %"struct.std::_Deque_iterator.368", %"struct.std::_Deque_iterator.368" }
%"struct.std::_Deque_iterator.368" = type { ptr, ptr, ptr, ptr }
%"class.std::shared_ptr.369" = type { %"class.std::__shared_ptr.370" }
%"class.std::__shared_ptr.370" = type { ptr, %"class.std::__shared_count" }
%"class.node::MutexBase<node::LibuvMutexTraits>::ScopedLock" = type { ptr }

@.str.18 = private unnamed_addr constant [18 x i8] c"incoming_messages\00", align 1

; Function Attrs: mustprogress nounwind uwtable
define linkonce_odr dso_local void @_ZN4node16LibuvMutexTraits12mutex_unlockEP15pthread_mutex_t(ptr noundef %mutex) #4 comdat align 2 {
entry:
  %mutex.addr = alloca ptr, align 8
  store ptr %mutex, ptr %mutex.addr, align 8
  %0 = load ptr, ptr %mutex.addr, align 8
  call void @uv_mutex_unlock(ptr noundef %0)
  ret void
}

; Function Attrs: mustprogress nounwind uwtable
define linkonce_odr dso_local void @_ZN4node16LibuvMutexTraits10mutex_lockEP15pthread_mutex_t(ptr noundef %mutex) #4 comdat align 2 {
entry:
  %mutex.addr = alloca ptr, align 8
  store ptr %mutex, ptr %mutex.addr, align 8
  %0 = load ptr, ptr %mutex.addr, align 8
  call void @uv_mutex_lock(ptr noundef %0)
  ret void
}

; Function Attrs: mustprogress nounwind uwtable
define linkonce_odr dso_local void @_ZN4node9MutexBaseINS_16LibuvMutexTraitsEE10ScopedLockD2Ev(ptr noundef nonnull align 8 dereferenceable(8) %this) unnamed_addr #4 comdat align 2 {
entry:
  %this.addr = alloca ptr, align 8
  store ptr %this, ptr %this.addr, align 8
  %this1 = load ptr, ptr %this.addr, align 8
  %mutex_ = getelementptr inbounds %"class.node::MutexBase<node::LibuvMutexTraits>::ScopedLock", ptr %this1, i32 0, i32 0
  %0 = load ptr, ptr %mutex_, align 8
  %mutex_2 = getelementptr inbounds %"class.node::MutexBase", ptr %0, i32 0, i32 0
  call void @_ZN4node16LibuvMutexTraits12mutex_unlockEP15pthread_mutex_t(ptr noundef %mutex_2)
  ret void
}

; Function Attrs: mustprogress nounwind uwtable
define linkonce_odr dso_local void @_ZN4node9MutexBaseINS_16LibuvMutexTraitsEE10ScopedLockC2ERKS2_(ptr noundef nonnull align 8 dereferenceable(8) %this, ptr noundef nonnull align 8 dereferenceable(40) %mutex) unnamed_addr #4 comdat align 2 {
entry:
  %this.addr = alloca ptr, align 8
  %mutex.addr = alloca ptr, align 8
  store ptr %this, ptr %this.addr, align 8
  store ptr %mutex, ptr %mutex.addr, align 8
  %this1 = load ptr, ptr %this.addr, align 8
  %mutex_ = getelementptr inbounds %"class.node::MutexBase<node::LibuvMutexTraits>::ScopedLock", ptr %this1, i32 0, i32 0
  %0 = load ptr, ptr %mutex.addr, align 8
  store ptr %0, ptr %mutex_, align 8
  %mutex_2 = getelementptr inbounds %"class.node::MutexBase<node::LibuvMutexTraits>::ScopedLock", ptr %this1, i32 0, i32 0
  %1 = load ptr, ptr %mutex_2, align 8
  %mutex_3 = getelementptr inbounds %"class.node::MutexBase", ptr %1, i32 0, i32 0
  call void @_ZN4node16LibuvMutexTraits10mutex_lockEP15pthread_mutex_t(ptr noundef %mutex_3)
  ret void
}

; Function Attrs: mustprogress nounwind uwtable
define dso_local void @_ZNK4node6worker15MessagePortData10MemoryInfoEPNS_13MemoryTrackerE(ptr noundef nonnull align 8 dereferenceable(152) %this, ptr noundef %tracker) unnamed_addr #4 align 2 {
entry:
  %this.addr = alloca ptr, align 8
  %tracker.addr = alloca ptr, align 8
  %lock = alloca %"class.node::MutexBase<node::LibuvMutexTraits>::ScopedLock", align 8
  store ptr %this, ptr %this.addr, align 8
  store ptr %tracker, ptr %tracker.addr, align 8
  %this1 = load ptr, ptr %this.addr, align 8
  %mutex_ = getelementptr inbounds %"class.node::worker::MessagePortData", ptr %this1, i32 0, i32 1
  call void @_ZN4node9MutexBaseINS_16LibuvMutexTraitsEE10ScopedLockC2ERKS2_(ptr noundef nonnull align 8 dereferenceable(8) %lock, ptr noundef nonnull align 8 dereferenceable(40) %mutex_)
  %0 = load ptr, ptr %tracker.addr, align 8
  %incoming_messages_ = getelementptr inbounds %"class.node::worker::MessagePortData", ptr %this1, i32 0, i32 2
  call void @_ZN4node13MemoryTracker10TrackFieldISt5dequeISt10shared_ptrINS_6worker7MessageEESaIS6_EESt15_Deque_iteratorIS6_RKS6_PSA_EEEvPKcRKT_SF_SF_b(ptr noundef nonnull align 8 dereferenceable(152) %0, ptr noundef @.str.18, ptr noundef nonnull align 8 dereferenceable(80) %incoming_messages_, ptr noundef null, ptr noundef null, i1 noundef zeroext true)
  call void @_ZN4node9MutexBaseINS_16LibuvMutexTraitsEE10ScopedLockD2Ev(ptr noundef nonnull align 8 dereferenceable(8) %lock) #3
  ret void
}