; Function Attrs: mustprogress nounwind uwtable
define dso_local void @_ZNK4node6worker15MessagePortData10MemoryInfoEPNS_13MemoryTrackerE(ptr noundef nonnull align 8 dereferenceable(152) %this, ptr noundef %tracker) unnamed_addr #6 align 2 {
entry:
  %mutex_ = getelementptr inbounds i8, ptr %this, i64 8
  tail call void @uv_mutex_lock(ptr noundef nonnull %mutex_) #26
  %incoming_messages_ = getelementptr inbounds i8, ptr %this, i64 48
  tail call void @_ZN4node13MemoryTracker10TrackFieldISt5dequeISt10shared_ptrINS_6worker7MessageEESaIS6_EESt15_Deque_iteratorIS6_RKS6_PSA_EEEvPKcRKT_SF_SF_b(ptr noundef nonnull align 8 dereferenceable(152) %tracker, ptr noundef nonnull @.str.18, ptr noundef nonnull align 8 dereferenceable(80) %incoming_messages_, ptr noundef null, ptr noundef null, i1 noundef zeroext true)
  tail call void @uv_mutex_unlock(ptr noundef nonnull %mutex_) #26
  ret void
}